target datalayout = "e-m:e-p270:32:32-p271:32:32-p272:64:64-i64:64-i128:128-f80:128-n8:16:32:64-S128"
target triple = "x86_64-pc-linux-gnu"

%struct.SearchPathMatcher = type { ptr, i8, i8, i64 }

; Function Attrs: nounwind uwtable
define dso_local ptr @CopySearchPathMatcher(ptr noundef %0) #0 {
  %2 = alloca ptr, align 8
  %3 = alloca ptr, align 8
  store ptr %0, ptr %2, align 8
  call void @llvm.lifetime.start.p0(i64 8, ptr %3) #14
  %4 = call ptr @palloc(i64 noundef 24)
  store ptr %4, ptr %3, align 8
  %5 = load ptr, ptr %2, align 8
  %6 = getelementptr inbounds nuw %struct.SearchPathMatcher, ptr %5, i32 0, i32 0
  %7 = load ptr, ptr %6, align 8
  %8 = call ptr @list_copy(ptr noundef %7)
  %9 = load ptr, ptr %3, align 8
  %10 = getelementptr inbounds nuw %struct.SearchPathMatcher, ptr %9, i32 0, i32 0
  store ptr %8, ptr %10, align 8
  %11 = load ptr, ptr %2, align 8
  %12 = getelementptr inbounds nuw %struct.SearchPathMatcher, ptr %11, i32 0, i32 1
  %13 = load i8, ptr %12, align 8, !range !4, !noundef !5
  %14 = trunc i8 %13 to i1
  %15 = load ptr, ptr %3, align 8
  %16 = getelementptr inbounds nuw %struct.SearchPathMatcher, ptr %15, i32 0, i32 1
  %17 = zext i1 %14 to i8
  store i8 %17, ptr %16, align 8
  %18 = load ptr, ptr %2, align 8
  %19 = getelementptr inbounds nuw %struct.SearchPathMatcher, ptr %18, i32 0, i32 2
  %20 = load i8, ptr %19, align 1, !range !4, !noundef !5
  %21 = trunc i8 %20 to i1
  %22 = load ptr, ptr %3, align 8
  %23 = getelementptr inbounds nuw %struct.SearchPathMatcher, ptr %22, i32 0, i32 2
  %24 = zext i1 %21 to i8
  store i8 %24, ptr %23, align 1
  %25 = load ptr, ptr %2, align 8
  %26 = getelementptr inbounds nuw %struct.SearchPathMatcher, ptr %25, i32 0, i32 3
  %27 = load i64, ptr %26, align 8
  %28 = load ptr, ptr %3, align 8
  %29 = getelementptr inbounds nuw %struct.SearchPathMatcher, ptr %28, i32 0, i32 3
  store i64 %27, ptr %29, align 8
  %30 = load ptr, ptr %3, align 8
  call void @llvm.lifetime.end.p0(i64 8, ptr %3) #14
  ret ptr %30
}