; Function Attrs: nounwind uwtable
define dso_local ptr @CopySearchPathMatcher(ptr noundef readonly captures(none) %0) local_unnamed_addr #0 {
  %2 = tail call ptr @palloc(i64 noundef 24) #19
  %3 = load ptr, ptr %0, align 8
  %4 = tail call ptr @list_copy(ptr noundef %3) #19
  store ptr %4, ptr %2, align 8
  %5 = getelementptr inbounds nuw i8, ptr %0, i64 8
  %6 = load i8, ptr %5, align 8, !range !4, !noundef !5
  %7 = getelementptr inbounds nuw i8, ptr %2, i64 8
  store i8 %6, ptr %7, align 8
  %8 = getelementptr inbounds nuw i8, ptr %0, i64 9
  %9 = load i8, ptr %8, align 1, !range !4, !noundef !5
  %10 = getelementptr inbounds nuw i8, ptr %2, i64 9
  store i8 %9, ptr %10, align 1
  %11 = getelementptr inbounds nuw i8, ptr %0, i64 16
  %12 = load i64, ptr %11, align 8
  %13 = getelementptr inbounds nuw i8, ptr %2, i64 16
  store i64 %12, ptr %13, align 8
  ret ptr %2
}